target datalayout = "e-m:e-p270:32:32-p271:32:32-p272:64:64-i64:64-i128:128-f80:128-n8:16:32:64-S128"
target triple = "x86_64-unknown-linux-gnu"

@tzname = external global [2 x ptr], align 16

; Function Attrs: mustprogress uwtable
define dso_local noundef zeroext i1 @_ZN2EA4StdC15GetTimeZoneNameEPcb(ptr noundef %pName, i1 noundef zeroext %bDaylightSavingsName) #0 {
entry:
  %pName.addr = alloca ptr, align 8
  %bDaylightSavingsName.addr = alloca i8, align 1
  %pTZName = alloca ptr, align 8
  store ptr %pName, ptr %pName.addr, align 8
  %frombool = zext i1 %bDaylightSavingsName to i8
  store i8 %frombool, ptr %bDaylightSavingsName.addr, align 1
  %0 = load i8, ptr %bDaylightSavingsName.addr, align 1
  %tobool = trunc i8 %0 to i1
  %cond = select i1 %tobool, i32 1, i32 0
  %idxprom = sext i32 %cond to i64
  %arrayidx = getelementptr inbounds [2 x ptr], ptr @tzname, i64 0, i64 %idxprom
  %1 = load ptr, ptr %arrayidx, align 8
  store ptr %1, ptr %pTZName, align 8
  %2 = load ptr, ptr %pName.addr, align 8
  %3 = load ptr, ptr %pTZName, align 8
  %call = call noundef ptr @_ZN2EA4StdC7StrncpyEPcPKcm(ptr noundef %2, ptr noundef %3, i64 noundef 64)
  %4 = load ptr, ptr %pName.addr, align 8
  %arrayidx1 = getelementptr inbounds i8, ptr %4, i64 7
  store i8 0, ptr %arrayidx1, align 1
  ret i1 true
}