; Function Attrs: mustprogress uwtable
define dso_local noundef zeroext i1 @_ZN2EA4StdC15GetTimeZoneNameEPcb(ptr noundef %pName, i1 noundef zeroext %bDaylightSavingsName) local_unnamed_addr #0 {
entry:
  %idxprom = zext i1 %bDaylightSavingsName to i64
  %arrayidx = getelementptr inbounds nuw [2 x ptr], ptr @tzname, i64 0, i64 %idxprom
  %0 = load ptr, ptr %arrayidx, align 8
  %call = tail call noundef ptr @_ZN2EA4StdC7StrncpyEPcPKcm(ptr noundef %pName, ptr noundef %0, i64 noundef 64)
  %arrayidx1 = getelementptr inbounds nuw i8, ptr %pName, i64 7
  store i8 0, ptr %arrayidx1, align 1
  ret i1 true
}